target datalayout = "e-m:e-p270:32:32-p271:32:32-p272:64:64-i64:64-i128:128-f80:128-n8:16:32:64-S128"
target triple = "x86_64-pc-linux-gnu"

%struct.Vec_Ptr_t_ = type { i32, i32, ptr }
%struct.Sto_Man_t_ = type { i32, i32, i32, i32, ptr, ptr, ptr, i32, i32, ptr }
%struct.Sto_Cls_t_ = type { ptr, ptr, ptr, i32, i32, [0 x i32] }
%struct.Vec_Int_t_ = type { i32, i32, ptr }

@.str.5 = private unnamed_addr constant [2 x i8] c"\0A\00", align 1
@.str.28 = private unnamed_addr constant [36 x i8] c"UNSAT contains %d learned clauses:\0A\00", align 1
@.str.29 = private unnamed_addr constant [13 x i8] c"%6d : %6d : \00", align 1
@.str.30 = private unnamed_addr constant [10 x i8] c"%s%d(%d) \00", align 1
@.str.31 = private unnamed_addr constant [2 x i8] c"!\00", align 1
@.str.32 = private unnamed_addr constant [1 x i8] zeroinitializer, align 1
@.str.33 = private unnamed_addr constant [6 x i8] c"Empty\00", align 1

; Function Attrs: nounwind uwtable
define internal void @Vec_PtrGrow(ptr noundef %0, i32 noundef %1) #0 {
  %3 = alloca ptr, align 8
  %4 = alloca i32, align 4
  store ptr %0, ptr %3, align 8
  store i32 %1, ptr %4, align 4
  %5 = load ptr, ptr %3, align 8
  %6 = getelementptr inbounds %struct.Vec_Ptr_t_, ptr %5, i32 0, i32 0
  %7 = load i32, ptr %6, align 8
  %8 = load i32, ptr %4, align 4
  %9 = icmp sge i32 %7, %8
  br i1 %9, label %10, label %11

10:                                               ; preds = %2
  br label %36

11:                                               ; preds = %2
  %12 = load ptr, ptr %3, align 8
  %13 = getelementptr inbounds %struct.Vec_Ptr_t_, ptr %12, i32 0, i32 2
  %14 = load ptr, ptr %13, align 8
  %15 = icmp ne ptr %14, null
  br i1 %15, label %16, label %24

16:                                               ; preds = %11
  %17 = load ptr, ptr %3, align 8
  %18 = getelementptr inbounds %struct.Vec_Ptr_t_, ptr %17, i32 0, i32 2
  %19 = load ptr, ptr %18, align 8
  %20 = load i32, ptr %4, align 4
  %21 = sext i32 %20 to i64
  %22 = mul i64 8, %21
  %23 = call ptr @realloc(ptr noundef %19, i64 noundef %22) #10
  br label %29

24:                                               ; preds = %11
  %25 = load i32, ptr %4, align 4
  %26 = sext i32 %25 to i64
  %27 = mul i64 8, %26
  %28 = call noalias ptr @malloc(i64 noundef %27) #9
  br label %29

29:                                               ; preds = %24, %16
  %30 = phi ptr [ %23, %16 ], [ %28, %24 ]
  %31 = load ptr, ptr %3, align 8
  %32 = getelementptr inbounds %struct.Vec_Ptr_t_, ptr %31, i32 0, i32 2
  store ptr %30, ptr %32, align 8
  %33 = load i32, ptr %4, align 4
  %34 = load ptr, ptr %3, align 8
  %35 = getelementptr inbounds %struct.Vec_Ptr_t_, ptr %34, i32 0, i32 0
  store i32 %33, ptr %35, align 8
  br label %36

36:                                               ; preds = %29, %10
  ret void
}

; Function Attrs: nounwind uwtable
define internal void @Vec_PtrFree(ptr noundef %0) #0 {
  %2 = alloca ptr, align 8
  store ptr %0, ptr %2, align 8
  %3 = load ptr, ptr %2, align 8
  %4 = getelementptr inbounds %struct.Vec_Ptr_t_, ptr %3, i32 0, i32 2
  %5 = load ptr, ptr %4, align 8
  %6 = icmp ne ptr %5, null
  br i1 %6, label %7, label %13

7:                                                ; preds = %1
  %8 = load ptr, ptr %2, align 8
  %9 = getelementptr inbounds %struct.Vec_Ptr_t_, ptr %8, i32 0, i32 2
  %10 = load ptr, ptr %9, align 8
  call void @free(ptr noundef %10) #11
  %11 = load ptr, ptr %2, align 8
  %12 = getelementptr inbounds %struct.Vec_Ptr_t_, ptr %11, i32 0, i32 2
  store ptr null, ptr %12, align 8
  br label %14

13:                                               ; preds = %1
  br label %14

14:                                               ; preds = %13, %7
  %15 = load ptr, ptr %2, align 8
  %16 = icmp ne ptr %15, null
  br i1 %16, label %17, label %19

17:                                               ; preds = %14
  %18 = load ptr, ptr %2, align 8
  call void @free(ptr noundef %18) #11
  store ptr null, ptr %2, align 8
  br label %20

19:                                               ; preds = %14
  br label %20

20:                                               ; preds = %19, %17
  ret void
}

; Function Attrs: nounwind uwtable
define internal i32 @Abc_Lit2Var(i32 noundef %0) #0 {
  %2 = alloca i32, align 4
  store i32 %0, ptr %2, align 4
  %3 = load i32, ptr %2, align 4
  %4 = ashr i32 %3, 1
  ret i32 %4
}

; Function Attrs: nounwind uwtable
define internal i32 @Abc_LitIsCompl(i32 noundef %0) #0 {
  %2 = alloca i32, align 4
  store i32 %0, ptr %2, align 4
  %3 = load i32, ptr %2, align 4
  %4 = and i32 %3, 1
  ret i32 %4
}

; Function Attrs: nounwind uwtable
define internal ptr @Vec_PtrEntry(ptr noundef %0, i32 noundef %1) #0 {
  %3 = alloca ptr, align 8
  %4 = alloca i32, align 4
  store ptr %0, ptr %3, align 8
  store i32 %1, ptr %4, align 4
  %5 = load ptr, ptr %3, align 8
  %6 = getelementptr inbounds %struct.Vec_Ptr_t_, ptr %5, i32 0, i32 2
  %7 = load ptr, ptr %6, align 8
  %8 = load i32, ptr %4, align 4
  %9 = sext i32 %8 to i64
  %10 = getelementptr inbounds ptr, ptr %7, i64 %9
  %11 = load ptr, ptr %10, align 8
  ret ptr %11
}

; Function Attrs: nounwind uwtable
define internal i32 @Vec_IntEntry(ptr noundef %0, i32 noundef %1) #0 {
  %3 = alloca ptr, align 8
  %4 = alloca i32, align 4
  store ptr %0, ptr %3, align 8
  store i32 %1, ptr %4, align 4
  %5 = load ptr, ptr %3, align 8
  %6 = getelementptr inbounds %struct.Vec_Int_t_, ptr %5, i32 0, i32 2
  %7 = load ptr, ptr %6, align 8
  %8 = load i32, ptr %4, align 4
  %9 = sext i32 %8 to i64
  %10 = getelementptr inbounds i32, ptr %7, i64 %9
  %11 = load i32, ptr %10, align 4
  ret i32 %11
}

; Function Attrs: nounwind uwtable
define internal i32 @Vec_IntSize(ptr noundef %0) #0 {
  %2 = alloca ptr, align 8
  store ptr %0, ptr %2, align 8
  %3 = load ptr, ptr %2, align 8
  %4 = getelementptr inbounds %struct.Vec_Int_t_, ptr %3, i32 0, i32 1
  %5 = load i32, ptr %4, align 4
  ret i32 %5
}

; Function Attrs: nounwind uwtable
define internal void @Vec_PtrPush(ptr noundef %0, ptr noundef %1) #0 {
  %3 = alloca ptr, align 8
  %4 = alloca ptr, align 8
  store ptr %0, ptr %3, align 8
  store ptr %1, ptr %4, align 8
  %5 = load ptr, ptr %3, align 8
  %6 = getelementptr inbounds %struct.Vec_Ptr_t_, ptr %5, i32 0, i32 1
  %7 = load i32, ptr %6, align 4
  %8 = load ptr, ptr %3, align 8
  %9 = getelementptr inbounds %struct.Vec_Ptr_t_, ptr %8, i32 0, i32 0
  %10 = load i32, ptr %9, align 8
  %11 = icmp eq i32 %7, %10
  br i1 %11, label %12, label %26

12:                                               ; preds = %2
  %13 = load ptr, ptr %3, align 8
  %14 = getelementptr inbounds %struct.Vec_Ptr_t_, ptr %13, i32 0, i32 0
  %15 = load i32, ptr %14, align 8
  %16 = icmp slt i32 %15, 16
  br i1 %16, label %17, label %19

17:                                               ; preds = %12
  %18 = load ptr, ptr %3, align 8
  call void @Vec_PtrGrow(ptr noundef %18, i32 noundef 16)
  br label %25

19:                                               ; preds = %12
  %20 = load ptr, ptr %3, align 8
  %21 = load ptr, ptr %3, align 8
  %22 = getelementptr inbounds %struct.Vec_Ptr_t_, ptr %21, i32 0, i32 0
  %23 = load i32, ptr %22, align 8
  %24 = mul nsw i32 2, %23
  call void @Vec_PtrGrow(ptr noundef %20, i32 noundef %24)
  br label %25

25:                                               ; preds = %19, %17
  br label %26

26:                                               ; preds = %25, %2
  %27 = load ptr, ptr %4, align 8
  %28 = load ptr, ptr %3, align 8
  %29 = getelementptr inbounds %struct.Vec_Ptr_t_, ptr %28, i32 0, i32 2
  %30 = load ptr, ptr %29, align 8
  %31 = load ptr, ptr %3, align 8
  %32 = getelementptr inbounds %struct.Vec_Ptr_t_, ptr %31, i32 0, i32 1
  %33 = load i32, ptr %32, align 4
  %34 = add nsw i32 %33, 1
  store i32 %34, ptr %32, align 4
  %35 = sext i32 %33 to i64
  %36 = getelementptr inbounds ptr, ptr %30, i64 %35
  store ptr %27, ptr %36, align 8
  ret void
}

; Function Attrs: nounwind uwtable
define internal ptr @Vec_PtrAlloc(i32 noundef %0) #0 {
  %2 = alloca i32, align 4
  %3 = alloca ptr, align 8
  store i32 %0, ptr %2, align 4
  %4 = call noalias ptr @malloc(i64 noundef 16) #9
  store ptr %4, ptr %3, align 8
  %5 = load i32, ptr %2, align 4
  %6 = icmp sgt i32 %5, 0
  br i1 %6, label %7, label %11

7:                                                ; preds = %1
  %8 = load i32, ptr %2, align 4
  %9 = icmp slt i32 %8, 8
  br i1 %9, label %10, label %11

10:                                               ; preds = %7
  store i32 8, ptr %2, align 4
  br label %11

11:                                               ; preds = %10, %7, %1
  %12 = load ptr, ptr %3, align 8
  %13 = getelementptr inbounds %struct.Vec_Ptr_t_, ptr %12, i32 0, i32 1
  store i32 0, ptr %13, align 4
  %14 = load i32, ptr %2, align 4
  %15 = load ptr, ptr %3, align 8
  %16 = getelementptr inbounds %struct.Vec_Ptr_t_, ptr %15, i32 0, i32 0
  store i32 %14, ptr %16, align 8
  %17 = load ptr, ptr %3, align 8
  %18 = getelementptr inbounds %struct.Vec_Ptr_t_, ptr %17, i32 0, i32 0
  %19 = load i32, ptr %18, align 8
  %20 = icmp ne i32 %19, 0
  br i1 %20, label %21, label %28

21:                                               ; preds = %11
  %22 = load ptr, ptr %3, align 8
  %23 = getelementptr inbounds %struct.Vec_Ptr_t_, ptr %22, i32 0, i32 0
  %24 = load i32, ptr %23, align 8
  %25 = sext i32 %24 to i64
  %26 = mul i64 8, %25
  %27 = call noalias ptr @malloc(i64 noundef %26) #9
  br label %29

28:                                               ; preds = %11
  br label %29

29:                                               ; preds = %28, %21
  %30 = phi ptr [ %27, %21 ], [ null, %28 ]
  %31 = load ptr, ptr %3, align 8
  %32 = getelementptr inbounds %struct.Vec_Ptr_t_, ptr %31, i32 0, i32 2
  store ptr %30, ptr %32, align 8
  %33 = load ptr, ptr %3, align 8
  ret ptr %33
}

; Function Attrs: nounwind uwtable
define void @Intp_ManUnsatCorePrintForBmc(ptr noundef %0, ptr noundef %1, ptr noundef %2, ptr noundef %3) #0 {
  %5 = alloca ptr, align 8
  %6 = alloca ptr, align 8
  %7 = alloca ptr, align 8
  %8 = alloca ptr, align 8
  %9 = alloca ptr, align 8
  %10 = alloca ptr, align 8
  %11 = alloca ptr, align 8
  %12 = alloca ptr, align 8
  %13 = alloca i32, align 4
  %14 = alloca i32, align 4
  %15 = alloca i32, align 4
  %16 = alloca i32, align 4
  %17 = alloca i32, align 4
  %18 = alloca i32, align 4
  store ptr %0, ptr %5, align 8
  store ptr %1, ptr %6, align 8
  store ptr %2, ptr %7, align 8
  store ptr %3, ptr %8, align 8
  %19 = load ptr, ptr %7, align 8
  store ptr %19, ptr %9, align 8
  %20 = load ptr, ptr %8, align 8
  store ptr %20, ptr %10, align 8
  %21 = load ptr, ptr %6, align 8
  %22 = getelementptr inbounds %struct.Sto_Man_t_, ptr %21, i32 0, i32 2
  %23 = load i32, ptr %22, align 8
  %24 = call ptr @Vec_PtrAlloc(i32 noundef %23)
  store ptr %24, ptr %11, align 8
  %25 = load ptr, ptr %6, align 8
  %26 = getelementptr inbounds %struct.Sto_Man_t_, ptr %25, i32 0, i32 4
  %27 = load ptr, ptr %26, align 8
  store ptr %27, ptr %12, align 8
  br label %28

28:                                               ; preds = %34, %4
  %29 = load ptr, ptr %12, align 8
  %30 = icmp ne ptr %29, null
  br i1 %30, label %31, label %38

31:                                               ; preds = %28
  %32 = load ptr, ptr %11, align 8
  %33 = load ptr, ptr %12, align 8
  call void @Vec_PtrPush(ptr noundef %32, ptr noundef %33)
  br label %34

34:                                               ; preds = %31
  %35 = load ptr, ptr %12, align 8
  %36 = getelementptr inbounds %struct.Sto_Cls_t_, ptr %35, i32 0, i32 0
  %37 = load ptr, ptr %36, align 8
  store ptr %37, ptr %12, align 8
  br label %28, !llvm.loop !39

38:                                               ; preds = %28
  %39 = load ptr, ptr %5, align 8
  %40 = load ptr, ptr %9, align 8
  %41 = call i32 @Vec_IntSize(ptr noundef %40)
  %42 = call i32 (ptr, ptr, ...) @fprintf(ptr noundef %39, ptr noundef @.str.28, i32 noundef %41) #11
  store i32 0, ptr %14, align 4
  br label %43

43:                                               ; preds = %126, %38
  %44 = load i32, ptr %14, align 4
  %45 = load ptr, ptr %9, align 8
  %46 = call i32 @Vec_IntSize(ptr noundef %45)
  %47 = icmp slt i32 %44, %46
  br i1 %47, label %48, label %52

48:                                               ; preds = %43
  %49 = load ptr, ptr %9, align 8
  %50 = load i32, ptr %14, align 4
  %51 = call i32 @Vec_IntEntry(ptr noundef %49, i32 noundef %50)
  store i32 %51, ptr %15, align 4
  br label %52

52:                                               ; preds = %48, %43
  %53 = phi i1 [ false, %43 ], [ true, %48 ]
  br i1 %53, label %54, label %129

54:                                               ; preds = %52
  %55 = load ptr, ptr %11, align 8
  %56 = load i32, ptr %15, align 4
  %57 = call ptr @Vec_PtrEntry(ptr noundef %55, i32 noundef %56)
  store ptr %57, ptr %12, align 8
  %58 = load ptr, ptr %5, align 8
  %59 = load i32, ptr %14, align 4
  %60 = load i32, ptr %15, align 4
  %61 = load ptr, ptr %6, align 8
  %62 = getelementptr inbounds %struct.Sto_Man_t_, ptr %61, i32 0, i32 1
  %63 = load i32, ptr %62, align 4
  %64 = sub nsw i32 %60, %63
  %65 = call i32 (ptr, ptr, ...) @fprintf(ptr noundef %58, ptr noundef @.str.29, i32 noundef %59, i32 noundef %64) #11
  store i32 0, ptr %13, align 4
  br label %66

66:                                               ; preds = %110, %54
  %67 = load i32, ptr %13, align 4
  %68 = load ptr, ptr %12, align 8
  %69 = getelementptr inbounds %struct.Sto_Cls_t_, ptr %68, i32 0, i32 4
  %70 = load i32, ptr %69, align 4
  %71 = lshr i32 %70, 3
  %72 = and i32 %71, 16777215
  %73 = icmp slt i32 %67, %72
  br i1 %73, label %74, label %113

74:                                               ; preds = %66
  %75 = load ptr, ptr %12, align 8
  %76 = getelementptr inbounds %struct.Sto_Cls_t_, ptr %75, i32 0, i32 5
  %77 = load i32, ptr %13, align 4
  %78 = sext i32 %77 to i64
  %79 = getelementptr inbounds [0 x i32], ptr %76, i64 0, i64 %78
  %80 = load i32, ptr %79, align 4
  %81 = call i32 @Abc_LitIsCompl(i32 noundef %80)
  store i32 %81, ptr %16, align 4
  %82 = load ptr, ptr %10, align 8
  %83 = load ptr, ptr %12, align 8
  %84 = getelementptr inbounds %struct.Sto_Cls_t_, ptr %83, i32 0, i32 5
  %85 = load i32, ptr %13, align 4
  %86 = sext i32 %85 to i64
  %87 = getelementptr inbounds [0 x i32], ptr %84, i64 0, i64 %86
  %88 = load i32, ptr %87, align 4
  %89 = call i32 @Abc_Lit2Var(i32 noundef %88)
  %90 = mul nsw i32 2, %89
  %91 = call i32 @Vec_IntEntry(ptr noundef %82, i32 noundef %90)
  store i32 %91, ptr %17, align 4
  %92 = load ptr, ptr %10, align 8
  %93 = load ptr, ptr %12, align 8
  %94 = getelementptr inbounds %struct.Sto_Cls_t_, ptr %93, i32 0, i32 5
  %95 = load i32, ptr %13, align 4
  %96 = sext i32 %95 to i64
  %97 = getelementptr inbounds [0 x i32], ptr %94, i64 0, i64 %96
  %98 = load i32, ptr %97, align 4
  %99 = call i32 @Abc_Lit2Var(i32 noundef %98)
  %100 = mul nsw i32 2, %99
  %101 = add nsw i32 %100, 1
  %102 = call i32 @Vec_IntEntry(ptr noundef %92, i32 noundef %101)
  store i32 %102, ptr %18, align 4
  %103 = load ptr, ptr %5, align 8
  %104 = load i32, ptr %16, align 4
  %105 = icmp ne i32 %104, 0
  %106 = select i1 %105, ptr @.str.31, ptr @.str.32
  %107 = load i32, ptr %17, align 4
  %108 = load i32, ptr %18, align 4
  %109 = call i32 (ptr, ptr, ...) @fprintf(ptr noundef %103, ptr noundef @.str.30, ptr noundef %106, i32 noundef %107, i32 noundef %108) #11
  br label %110

110:                                              ; preds = %74
  %111 = load i32, ptr %13, align 4
  %112 = add nsw i32 %111, 1
  store i32 %112, ptr %13, align 4
  br label %66, !llvm.loop !40

113:                                              ; preds = %66
  %114 = load ptr, ptr %12, align 8
  %115 = getelementptr inbounds %struct.Sto_Cls_t_, ptr %114, i32 0, i32 4
  %116 = load i32, ptr %115, align 4
  %117 = lshr i32 %116, 3
  %118 = and i32 %117, 16777215
  %119 = icmp eq i32 %118, 0
  br i1 %119, label %120, label %123

120:                                              ; preds = %113
  %121 = load ptr, ptr %5, align 8
  %122 = call i32 (ptr, ptr, ...) @fprintf(ptr noundef %121, ptr noundef @.str.33) #11
  br label %123

123:                                              ; preds = %120, %113
  %124 = load ptr, ptr %5, align 8
  %125 = call i32 (ptr, ptr, ...) @fprintf(ptr noundef %124, ptr noundef @.str.5) #11
  br label %126

126:                                              ; preds = %123
  %127 = load i32, ptr %14, align 4
  %128 = add nsw i32 %127, 1
  store i32 %128, ptr %14, align 4
  br label %43, !llvm.loop !41

129:                                              ; preds = %52
  %130 = load ptr, ptr %11, align 8
  call void @Vec_PtrFree(ptr noundef %130)
  ret void
}