; Function Attrs: nounwind uwtable
define void @Intp_ManUnsatCorePrintForBmc(ptr noundef captures(none) %0, ptr noundef readonly captures(none) %1, ptr noundef readonly captures(none) %2, ptr noundef readonly captures(none) %3) local_unnamed_addr #3 {
  %5 = getelementptr inbounds nuw i8, ptr %1, i64 8
  %6 = load i32, ptr %5, align 8
  %7 = tail call noalias dereferenceable_or_null(16) ptr @malloc(i64 noundef 16) #14
  %8 = add i32 %6, -1
  %or.cond.i = icmp ult i32 %8, 7
  %spec.store.select.i = select i1 %or.cond.i, i32 8, i32 %6
  %9 = getelementptr inbounds nuw i8, ptr %7, i64 4
  store i32 0, ptr %9, align 4
  store i32 %spec.store.select.i, ptr %7, align 8
  %.not.i = icmp eq i32 %spec.store.select.i, 0
  br i1 %.not.i, label %Vec_PtrAlloc.exit, label %10

10:                                               ; preds = %4
  %11 = sext i32 %spec.store.select.i to i64
  %12 = shl nsw i64 %11, 3
  %13 = tail call noalias ptr @malloc(i64 noundef %12) #14
  br label %Vec_PtrAlloc.exit

Vec_PtrAlloc.exit:                                ; preds = %4, %10
  %14 = phi ptr [ %13, %10 ], [ null, %4 ]
  %15 = getelementptr inbounds nuw i8, ptr %7, i64 8
  store ptr %14, ptr %15, align 8
  %16 = getelementptr inbounds nuw i8, ptr %1, i64 16
  %.049 = load ptr, ptr %16, align 8
  %.not50 = icmp eq ptr %.049, null
  br i1 %.not50, label %._crit_edge, label %.lr.ph

.lr.ph:                                           ; preds = %Vec_PtrAlloc.exit, %Vec_PtrPush.exit
  %.051 = phi ptr [ %.0, %Vec_PtrPush.exit ], [ %.049, %Vec_PtrAlloc.exit ]
  %17 = load i32, ptr %9, align 4
  %18 = load i32, ptr %7, align 8
  %19 = icmp eq i32 %17, %18
  br i1 %19, label %20, label %.Vec_PtrGrow.exit11_crit_edge.i

.Vec_PtrGrow.exit11_crit_edge.i:                  ; preds = %.lr.ph
  %.pre.i = load ptr, ptr %15, align 8
  br label %Vec_PtrPush.exit

20:                                               ; preds = %.lr.ph
  %21 = icmp slt i32 %17, 16
  br i1 %21, label %22, label %29

22:                                               ; preds = %20
  %23 = load ptr, ptr %15, align 8
  %.not9.i.i = icmp eq ptr %23, null
  br i1 %.not9.i.i, label %26, label %24

24:                                               ; preds = %22
  %25 = tail call dereferenceable_or_null(128) ptr @realloc(ptr noundef nonnull %23, i64 noundef 128) #15
  br label %Vec_PtrGrow.exit.i

26:                                               ; preds = %22
  %27 = tail call noalias dereferenceable_or_null(128) ptr @malloc(i64 noundef 128) #14
  br label %Vec_PtrGrow.exit.i

Vec_PtrGrow.exit.i:                               ; preds = %26, %24
  %28 = phi ptr [ %25, %24 ], [ %27, %26 ]
  store ptr %28, ptr %15, align 8
  store i32 16, ptr %7, align 8
  br label %Vec_PtrPush.exit

29:                                               ; preds = %20
  %30 = shl nuw nsw i32 %17, 1
  %31 = load ptr, ptr %15, align 8
  %.not9.i10.i = icmp eq ptr %31, null
  %32 = zext nneg i32 %30 to i64
  %33 = shl nuw nsw i64 %32, 3
  br i1 %.not9.i10.i, label %36, label %34

34:                                               ; preds = %29
  %35 = tail call ptr @realloc(ptr noundef nonnull %31, i64 noundef %33) #15
  br label %38

36:                                               ; preds = %29
  %37 = tail call noalias ptr @malloc(i64 noundef %33) #14
  br label %38

38:                                               ; preds = %36, %34
  %39 = phi ptr [ %35, %34 ], [ %37, %36 ]
  store ptr %39, ptr %15, align 8
  store i32 %30, ptr %7, align 8
  br label %Vec_PtrPush.exit

Vec_PtrPush.exit:                                 ; preds = %.Vec_PtrGrow.exit11_crit_edge.i, %Vec_PtrGrow.exit.i, %38
  %40 = phi ptr [ %.pre.i, %.Vec_PtrGrow.exit11_crit_edge.i ], [ %39, %38 ], [ %28, %Vec_PtrGrow.exit.i ]
  %41 = add nsw i32 %17, 1
  store i32 %41, ptr %9, align 4
  %42 = sext i32 %17 to i64
  %43 = getelementptr inbounds ptr, ptr %40, i64 %42
  store ptr %.051, ptr %43, align 8
  %.0 = load ptr, ptr %.051, align 8
  %.not = icmp eq ptr %.0, null
  br i1 %.not, label %._crit_edge, label %.lr.ph, !llvm.loop !38

._crit_edge:                                      ; preds = %Vec_PtrPush.exit, %Vec_PtrAlloc.exit
  %44 = getelementptr i8, ptr %2, i64 4
  %.val43 = load i32, ptr %44, align 4
  %45 = tail call i32 (ptr, ptr, ...) @fprintf(ptr noundef %0, ptr noundef nonnull @.str.28, i32 noundef %.val43) #16
  %.val56 = load i32, ptr %44, align 4
  %46 = icmp sgt i32 %.val56, 0
  %.pre = load ptr, ptr %15, align 8
  br i1 %46, label %.lr.ph59, label %.critedge

.lr.ph59:                                         ; preds = %._crit_edge
  %47 = getelementptr i8, ptr %2, i64 8
  %48 = getelementptr inbounds nuw i8, ptr %1, i64 4
  %49 = getelementptr i8, ptr %3, i64 8
  br label %50

50:                                               ; preds = %.lr.ph59, %85
  %indvars.iv63 = phi i64 [ 0, %.lr.ph59 ], [ %indvars.iv.next64, %85 ]
  %.val46 = load ptr, ptr %47, align 8
  %51 = getelementptr inbounds nuw i32, ptr %.val46, i64 %indvars.iv63
  %52 = load i32, ptr %51, align 4
  %53 = sext i32 %52 to i64
  %54 = getelementptr inbounds ptr, ptr %.pre, i64 %53
  %55 = load ptr, ptr %54, align 8
  %56 = load i32, ptr %48, align 4
  %57 = sub nsw i32 %52, %56
  %58 = trunc nuw nsw i64 %indvars.iv63 to i32
  %59 = tail call i32 (ptr, ptr, ...) @fprintf(ptr noundef %0, ptr noundef nonnull @.str.29, i32 noundef %58, i32 noundef %57) #16
  %60 = getelementptr inbounds nuw i8, ptr %55, i64 28
  %61 = load i32, ptr %60, align 4
  %62 = and i32 %61, 134217720
  %.not60 = icmp eq i32 %62, 0
  br i1 %.not60, label %._crit_edge55.thread, label %.lr.ph54

.lr.ph54:                                         ; preds = %50
  %63 = getelementptr inbounds nuw i8, ptr %55, i64 32
  br label %64

64:                                               ; preds = %.lr.ph54, %64
  %indvars.iv = phi i64 [ 0, %.lr.ph54 ], [ %indvars.iv.next, %64 ]
  %65 = getelementptr inbounds nuw [0 x i32], ptr %63, i64 0, i64 %indvars.iv
  %66 = load i32, ptr %65, align 4
  %67 = and i32 %66, 1
  %68 = and i32 %66, -2
  %.val45 = load ptr, ptr %49, align 8
  %69 = sext i32 %68 to i64
  %70 = getelementptr inbounds i32, ptr %.val45, i64 %69
  %71 = load i32, ptr %70, align 4
  %72 = or i32 %66, 1
  %73 = sext i32 %72 to i64
  %74 = getelementptr inbounds i32, ptr %.val45, i64 %73
  %75 = load i32, ptr %74, align 4
  %.not42 = icmp eq i32 %67, 0
  %76 = select i1 %.not42, ptr @.str.32, ptr @.str.31
  %77 = tail call i32 (ptr, ptr, ...) @fprintf(ptr noundef %0, ptr noundef nonnull @.str.30, ptr noundef nonnull %76, i32 noundef %71, i32 noundef %75) #16
  %indvars.iv.next = add nuw nsw i64 %indvars.iv, 1
  %78 = load i32, ptr %60, align 4
  %79 = lshr i32 %78, 3
  %80 = and i32 %79, 16777215
  %81 = zext nneg i32 %80 to i64
  %82 = icmp samesign ult i64 %indvars.iv.next, %81
  br i1 %82, label %64, label %._crit_edge55, !llvm.loop !39

._crit_edge55:                                    ; preds = %64
  %83 = icmp eq i32 %80, 0
  br i1 %83, label %._crit_edge55.thread, label %85

._crit_edge55.thread:                             ; preds = %50, %._crit_edge55
  %84 = tail call i64 @fwrite(ptr nonnull @.str.33, i64 5, i64 1, ptr %0)
  br label %85

85:                                               ; preds = %._crit_edge55.thread, %._crit_edge55
  %fputc = tail call i32 @fputc(i32 10, ptr %0)
  %indvars.iv.next64 = add nuw nsw i64 %indvars.iv63, 1
  %.val = load i32, ptr %44, align 4
  %86 = sext i32 %.val to i64
  %87 = icmp slt i64 %indvars.iv.next64, %86
  br i1 %87, label %50, label %.critedge, !llvm.loop !40

.critedge:                                        ; preds = %85, %._crit_edge
  %.not.i48 = icmp eq ptr %.pre, null
  br i1 %.not.i48, label %Vec_PtrFree.exit, label %88

88:                                               ; preds = %.critedge
  tail call void @free(ptr noundef nonnull %.pre) #16
  br label %Vec_PtrFree.exit

Vec_PtrFree.exit:                                 ; preds = %.critedge, %88
  tail call void @free(ptr noundef nonnull %7) #16
  ret void
}